target datalayout = "e-m:e-p270:32:32-p271:32:32-p272:64:64-i64:64-i128:128-f80:128-n8:16:32:64-S128"
target triple = "x86_64-pc-linux-gnu"

%"class.std::vector.0" = type { %"struct.std::_Vector_base.1" }
%"struct.std::_Vector_base.1" = type { %"struct.std::_Vector_base<boost::dynamic_bitset<>, std::allocator<boost::dynamic_bitset<>>>::_Vector_impl" }
%"struct.std::_Vector_base<boost::dynamic_bitset<>, std::allocator<boost::dynamic_bitset<>>>::_Vector_impl" = type { %"struct.std::_Vector_base<boost::dynamic_bitset<>, std::allocator<boost::dynamic_bitset<>>>::_Vector_impl_data" }
%"struct.std::_Vector_base<boost::dynamic_bitset<>, std::allocator<boost::dynamic_bitset<>>>::_Vector_impl_data" = type { ptr, ptr, ptr }
%"struct.(anonymous namespace)::fmstate" = type { i64, %"struct.(anonymous namespace)::StateSet", %"struct.(anonymous namespace)::StateSet", ptr, %"class.std::vector.15", %"struct.(anonymous namespace)::EdgeCache", i64, i8, i8, i8, i8, ptr }
%"struct.(anonymous namespace)::StateSet" = type <{ %"class.std::vector.0", %"class.std::vector.0", %"class.std::vector.10", %"class.std::vector.10", i32, [4 x i8] }>
%"class.std::vector.10" = type { %"struct.std::_Vector_base.11" }
%"struct.std::_Vector_base.11" = type { %"struct.std::_Vector_base<std::vector<unsigned long>, std::allocator<std::vector<unsigned long>>>::_Vector_impl" }
%"struct.std::_Vector_base<std::vector<unsigned long>, std::allocator<std::vector<unsigned long>>>::_Vector_impl" = type { %"struct.std::_Vector_base<std::vector<unsigned long>, std::allocator<std::vector<unsigned long>>>::_Vector_impl_data" }
%"struct.std::_Vector_base<std::vector<unsigned long>, std::allocator<std::vector<unsigned long>>>::_Vector_impl_data" = type { ptr, ptr, ptr }
%"class.std::vector.15" = type { %"struct.std::_Vector_base.16" }
%"struct.std::_Vector_base.16" = type { %"struct.std::_Vector_base<ue2::graph_detail::vertex_descriptor<ue2::ue2_graph<ue2::NGHolder, ue2::NFAGraphVertexProps, ue2::NFAGraphEdgeProps>>, std::allocator<ue2::graph_detail::vertex_descriptor<ue2::ue2_graph<ue2::NGHolder, ue2::NFAGraphVertexProps, ue2::NFAGraphEdgeProps>>>>::_Vector_impl" }
%"struct.std::_Vector_base<ue2::graph_detail::vertex_descriptor<ue2::ue2_graph<ue2::NGHolder, ue2::NFAGraphVertexProps, ue2::NFAGraphEdgeProps>>, std::allocator<ue2::graph_detail::vertex_descriptor<ue2::ue2_graph<ue2::NGHolder, ue2::NFAGraphVertexProps, ue2::NFAGraphEdgeProps>>>>::_Vector_impl" = type { %"struct.std::_Vector_base<ue2::graph_detail::vertex_descriptor<ue2::ue2_graph<ue2::NGHolder, ue2::NFAGraphVertexProps, ue2::NFAGraphEdgeProps>>, std::allocator<ue2::graph_detail::vertex_descriptor<ue2::ue2_graph<ue2::NGHolder, ue2::NFAGraphVertexProps, ue2::NFAGraphEdgeProps>>>>::_Vector_impl_data" }
%"struct.std::_Vector_base<ue2::graph_detail::vertex_descriptor<ue2::ue2_graph<ue2::NGHolder, ue2::NFAGraphVertexProps, ue2::NFAGraphEdgeProps>>, std::allocator<ue2::graph_detail::vertex_descriptor<ue2::ue2_graph<ue2::NGHolder, ue2::NFAGraphVertexProps, ue2::NFAGraphEdgeProps>>>>::_Vector_impl_data" = type { ptr, ptr, ptr }
%"struct.(anonymous namespace)::EdgeCache" = type { %"class.std::unordered_map" }
%"class.std::unordered_map" = type { %"class.std::_Hashtable" }
%"class.std::_Hashtable" = type { ptr, i64, %"struct.std::__detail::_Hash_node_base", i64, %"struct.std::__detail::_Prime_rehash_policy", ptr }
%"struct.std::__detail::_Hash_node_base" = type { ptr }
%"struct.std::__detail::_Prime_rehash_policy" = type { float, i64 }
%"struct.boost::intrusive::list_node" = type { ptr, ptr }
%"class.ue2::graph_detail::edge_descriptor" = type { ptr, i64 }
%"class.ue2::flat_set" = type { %"class.ue2::flat_detail::flat_base" }
%"class.ue2::flat_detail::flat_base" = type { %"class.std::tuple" }
%"class.std::tuple" = type { %"struct.std::_Tuple_impl" }
%"struct.std::_Tuple_impl" = type { %"struct.std::_Head_base.133" }
%"struct.std::_Head_base.133" = type { %"class.boost::container::small_vector" }
%"class.boost::container::small_vector" = type { %"class.boost::container::small_vector_base.base", [4 x i8] }
%"class.boost::container::small_vector_base.base" = type <{ %"class.boost::container::vector", %"union.boost::move_detail::aligned_struct_wrapper" }>
%"class.boost::container::vector" = type { %"struct.boost::container::vector_alloc_holder" }
%"struct.boost::container::vector_alloc_holder" = type { ptr, i64, i64 }
%"union.boost::move_detail::aligned_struct_wrapper" = type { %"struct.boost::move_detail::aligned_struct" }
%"struct.boost::move_detail::aligned_struct" = type { [4 x i8] }
%"struct.ue2::ue2_graph<ue2::NGHolder, ue2::NFAGraphVertexProps, ue2::NFAGraphEdgeProps>::edge_node" = type { %"class.boost::intrusive::list_base_hook.217", %"class.boost::intrusive::list_base_hook.221", ptr, ptr, i64, %"struct.ue2::NFAGraphEdgeProps" }
%"class.boost::intrusive::list_base_hook.217" = type { %"class.boost::intrusive::generic_hook.218" }
%"class.boost::intrusive::generic_hook.218" = type { %"struct.boost::intrusive::node_holder.219" }
%"struct.boost::intrusive::node_holder.219" = type { %"struct.boost::intrusive::list_node" }
%"class.boost::intrusive::list_base_hook.221" = type { %"class.boost::intrusive::generic_hook.222" }
%"class.boost::intrusive::generic_hook.222" = type { %"struct.boost::intrusive::node_holder.223" }
%"struct.boost::intrusive::node_holder.223" = type { %"struct.boost::intrusive::list_node" }
%"struct.ue2::NFAGraphEdgeProps" = type <{ i64, %"class.ue2::flat_set", i32, [4 x i8] }>

; Function Attrs: alwaysinline mustprogress nounwind uwtable
define internal noundef signext i8 @_ZL9myislowerc(i8 noundef signext %0) #20 {
  %2 = alloca i8, align 1
  store i8 %0, ptr %2, align 1
  %3 = load i8, ptr %2, align 1
  %4 = sext i8 %3 to i32
  %5 = icmp sge i32 %4, 97
  br i1 %5, label %6, label %10

6:                                                ; preds = %1
  %7 = load i8, ptr %2, align 1
  %8 = sext i8 %7 to i32
  %9 = icmp sle i32 %8, 122
  br label %10

10:                                               ; preds = %6, %1
  %11 = phi i1 [ false, %1 ], [ %9, %6 ]
  %12 = zext i1 %11 to i8
  ret i8 %12
}

; Function Attrs: alwaysinline mustprogress nounwind uwtable
define internal noundef signext i8 @_ZL9myisupperc(i8 noundef signext %0) #20 {
  %2 = alloca i8, align 1
  store i8 %0, ptr %2, align 1
  %3 = load i8, ptr %2, align 1
  %4 = sext i8 %3 to i32
  %5 = icmp sge i32 %4, 65
  br i1 %5, label %6, label %10

6:                                                ; preds = %1
  %7 = load i8, ptr %2, align 1
  %8 = sext i8 %7 to i32
  %9 = icmp sle i32 %8, 90
  br label %10

10:                                               ; preds = %6, %1
  %11 = phi i1 [ false, %1 ], [ %9, %6 ]
  %12 = zext i1 %11 to i8
  ret i8 %12
}

; Function Attrs: alwaysinline mustprogress uwtable
define internal noundef signext i8 @_ZL9mytoupperc(i8 noundef signext %0) #19 {
  %2 = alloca i8, align 1
  %3 = alloca i8, align 1
  store i8 %0, ptr %3, align 1
  %4 = load i8, ptr %3, align 1
  %5 = call noundef signext i8 @_ZL9myislowerc(i8 noundef signext %4)
  %6 = icmp ne i8 %5, 0
  br i1 %6, label %7, label %12

7:                                                ; preds = %1
  %8 = load i8, ptr %3, align 1
  %9 = sext i8 %8 to i32
  %10 = sub nsw i32 %9, 32
  %11 = trunc i32 %10 to i8
  store i8 %11, ptr %2, align 1
  br label %14

12:                                               ; preds = %1
  %13 = load i8, ptr %3, align 1
  store i8 %13, ptr %2, align 1
  br label %14

14:                                               ; preds = %12, %7
  %15 = load i8, ptr %2, align 1
  ret i8 %15
}

; Function Attrs: alwaysinline mustprogress uwtable
define internal noundef signext i8 @_ZL9mytolowerc(i8 noundef signext %0) #19 {
  %2 = alloca i8, align 1
  %3 = alloca i8, align 1
  store i8 %0, ptr %3, align 1
  %4 = load i8, ptr %3, align 1
  %5 = call noundef signext i8 @_ZL9myisupperc(i8 noundef signext %4)
  %6 = icmp ne i8 %5, 0
  br i1 %6, label %7, label %12

7:                                                ; preds = %1
  %8 = load i8, ptr %3, align 1
  %9 = sext i8 %8 to i32
  %10 = add nsw i32 %9, 32
  %11 = trunc i32 %10 to i8
  store i8 %11, ptr %2, align 1
  br label %14

12:                                               ; preds = %1
  %13 = load i8, ptr %3, align 1
  store i8 %13, ptr %2, align 1
  br label %14

14:                                               ; preds = %12, %7
  %15 = load i8, ptr %2, align 1
  ret i8 %15
}

; Function Attrs: alwaysinline mustprogress uwtable
define internal noundef signext i8 @_ZL10ourisalphac(i8 noundef signext %0) #19 {
  %2 = alloca i8, align 1
  store i8 %0, ptr %2, align 1
  %3 = load i8, ptr %2, align 1
  %4 = call noundef signext i8 @_ZL9mytolowerc(i8 noundef signext %3)
  %5 = sext i8 %4 to i32
  %6 = load i8, ptr %2, align 1
  %7 = call noundef signext i8 @_ZL9mytoupperc(i8 noundef signext %6)
  %8 = sext i8 %7 to i32
  %9 = icmp ne i32 %5, %8
  %10 = zext i1 %9 to i8
  ret i8 %10
}

; Function Attrs: mustprogress nounwind uwtable
define linkonce_odr hidden noundef ptr @_ZN3ue212graph_detail15edge_descriptorINS_9ue2_graphINS_8NGHolderENS_19NFAGraphVertexPropsENS_17NFAGraphEdgePropsEEEE3rawEv(ptr noundef nonnull align 8 dereferenceable(16) %0) #1 comdat align 2 {
  %2 = alloca ptr, align 8
  store ptr %0, ptr %2, align 8
  %3 = load ptr, ptr %2, align 8
  %4 = getelementptr inbounds nuw %"class.ue2::graph_detail::edge_descriptor", ptr %3, i32 0, i32 0
  %5 = load ptr, ptr %4, align 8
  ret ptr %5
}

; Function Attrs: mustprogress uwtable
define internal noundef zeroext i1 @_ZL10isWordCharh(i8 noundef zeroext %0) #3 {
  %2 = alloca i1, align 1
  %3 = alloca i8, align 1
  store i8 %0, ptr %3, align 1
  %4 = load i8, ptr %3, align 1
  %5 = call noundef signext i8 @_ZL10ourisalphac(i8 noundef signext %4)
  %6 = icmp ne i8 %5, 0
  br i1 %6, label %7, label %8

7:                                                ; preds = %1
  store i1 true, ptr %2, align 1
  br label %23

8:                                                ; preds = %1
  %9 = load i8, ptr %3, align 1
  %10 = zext i8 %9 to i32
  %11 = icmp sge i32 %10, 48
  br i1 %11, label %12, label %17

12:                                               ; preds = %8
  %13 = load i8, ptr %3, align 1
  %14 = zext i8 %13 to i32
  %15 = icmp sle i32 %14, 57
  br i1 %15, label %16, label %17

16:                                               ; preds = %12
  store i1 true, ptr %2, align 1
  br label %23

17:                                               ; preds = %12, %8
  %18 = load i8, ptr %3, align 1
  %19 = zext i8 %18 to i32
  %20 = icmp eq i32 %19, 95
  br i1 %20, label %21, label %22

21:                                               ; preds = %17
  store i1 true, ptr %2, align 1
  br label %23

22:                                               ; preds = %17
  store i1 false, ptr %2, align 1
  br label %23

23:                                               ; preds = %22, %21, %16, %7
  %24 = load i1, ptr %2, align 1
  ret i1 %24
}

; Function Attrs: mustprogress nounwind uwtable
define linkonce_odr hidden noundef nonnull align 8 dereferenceable(44) ptr @_ZNK3ue29ue2_graphINS_8NGHolderENS_19NFAGraphVertexPropsENS_17NFAGraphEdgePropsEEixENS_12graph_detail15edge_descriptorIS4_EE(ptr noundef nonnull align 8 dereferenceable(56) %0, ptr %1, i64 %2) #1 comdat align 2 {
  %4 = alloca %"class.ue2::graph_detail::edge_descriptor", align 8
  %5 = alloca ptr, align 8
  %6 = getelementptr inbounds nuw { ptr, i64 }, ptr %4, i32 0, i32 0
  store ptr %1, ptr %6, align 8
  %7 = getelementptr inbounds nuw { ptr, i64 }, ptr %4, i32 0, i32 1
  store i64 %2, ptr %7, align 8
  store ptr %0, ptr %5, align 8
  %8 = call noundef ptr @_ZN3ue212graph_detail15edge_descriptorINS_9ue2_graphINS_8NGHolderENS_19NFAGraphVertexPropsENS_17NFAGraphEdgePropsEEEE3rawEv(ptr noundef nonnull align 8 dereferenceable(16) %4)
  %9 = getelementptr inbounds nuw %"struct.ue2::ue2_graph<ue2::NGHolder, ue2::NFAGraphVertexProps, ue2::NFAGraphEdgeProps>::edge_node", ptr %8, i32 0, i32 5
  ret ptr %9
}

; Function Attrs: mustprogress uwtable
define internal noundef zeroext i1 @_ZL8canReachRKN3ue28NGHolderERKNS_12graph_detail15edge_descriptorINS_9ue2_graphIS0_NS_19NFAGraphVertexPropsENS_17NFAGraphEdgePropsEEEEERN12_GLOBAL__N_17fmstateE(ptr noundef nonnull align 8 dereferenceable(136) %0, ptr noundef nonnull align 8 dereferenceable(16) %1, ptr noundef nonnull align 8 dereferenceable(328) %2) #3 {
  %4 = alloca i1, align 1
  %5 = alloca ptr, align 8
  %6 = alloca ptr, align 8
  %7 = alloca ptr, align 8
  %8 = alloca i32, align 4
  %9 = alloca %"class.ue2::graph_detail::edge_descriptor", align 8
  %10 = alloca i32, align 4
  store ptr %0, ptr %5, align 8
  store ptr %1, ptr %6, align 8
  store ptr %2, ptr %7, align 8
  call void @llvm.lifetime.start.p0(i64 4, ptr %8) #21
  %11 = load ptr, ptr %5, align 8
  %12 = getelementptr inbounds i8, ptr %11, i64 8
  %13 = load ptr, ptr %6, align 8
  call void @llvm.memcpy.p0.p0.i64(ptr align 8 %9, ptr align 8 %13, i64 16, i1 false)
  %14 = getelementptr inbounds nuw { ptr, i64 }, ptr %9, i32 0, i32 0
  %15 = load ptr, ptr %14, align 8
  %16 = getelementptr inbounds nuw { ptr, i64 }, ptr %9, i32 0, i32 1
  %17 = load i64, ptr %16, align 8
  %18 = call noundef nonnull align 8 dereferenceable(44) ptr @_ZNK3ue29ue2_graphINS_8NGHolderENS_19NFAGraphVertexPropsENS_17NFAGraphEdgePropsEEixENS_12graph_detail15edge_descriptorIS4_EE(ptr noundef nonnull align 8 dereferenceable(56) %12, ptr %15, i64 %17)
  %19 = getelementptr inbounds nuw %"struct.ue2::NFAGraphEdgeProps", ptr %18, i32 0, i32 2
  %20 = load i32, ptr %19, align 8
  store i32 %20, ptr %8, align 4
  %21 = load i32, ptr %8, align 4
  %22 = icmp ne i32 %21, 0
  br i1 %22, label %24, label %23

23:                                               ; preds = %3
  store i1 true, ptr %4, align 1
  store i32 1, ptr %10, align 4
  br label %89

24:                                               ; preds = %3
  %25 = load i32, ptr %8, align 4
  %26 = and i32 %25, 8
  %27 = icmp ne i32 %26, 0
  br i1 %27, label %28, label %40

28:                                               ; preds = %24
  %29 = load ptr, ptr %7, align 8
  %30 = getelementptr inbounds nuw %"struct.(anonymous namespace)::fmstate", ptr %29, i32 0, i32 8
  %31 = load i8, ptr %30, align 1
  %32 = call noundef zeroext i1 @_ZL10isWordCharh(i8 noundef zeroext %31)
  br i1 %32, label %33, label %39

33:                                               ; preds = %28
  %34 = load ptr, ptr %7, align 8
  %35 = getelementptr inbounds nuw %"struct.(anonymous namespace)::fmstate", ptr %34, i32 0, i32 7
  %36 = load i8, ptr %35, align 8
  %37 = call noundef zeroext i1 @_ZL10isWordCharh(i8 noundef zeroext %36)
  br i1 %37, label %39, label %38

38:                                               ; preds = %33
  store i1 true, ptr %4, align 1
  store i32 1, ptr %10, align 4
  br label %89

39:                                               ; preds = %33, %28
  br label %40

40:                                               ; preds = %39, %24
  %41 = load i32, ptr %8, align 4
  %42 = and i32 %41, 16
  %43 = icmp ne i32 %42, 0
  br i1 %43, label %44, label %56

44:                                               ; preds = %40
  %45 = load ptr, ptr %7, align 8
  %46 = getelementptr inbounds nuw %"struct.(anonymous namespace)::fmstate", ptr %45, i32 0, i32 8
  %47 = load i8, ptr %46, align 1
  %48 = call noundef zeroext i1 @_ZL10isWordCharh(i8 noundef zeroext %47)
  br i1 %48, label %55, label %49

49:                                               ; preds = %44
  %50 = load ptr, ptr %7, align 8
  %51 = getelementptr inbounds nuw %"struct.(anonymous namespace)::fmstate", ptr %50, i32 0, i32 7
  %52 = load i8, ptr %51, align 8
  %53 = call noundef zeroext i1 @_ZL10isWordCharh(i8 noundef zeroext %52)
  br i1 %53, label %54, label %55

54:                                               ; preds = %49
  store i1 true, ptr %4, align 1
  store i32 1, ptr %10, align 4
  br label %89

55:                                               ; preds = %49, %44
  br label %56

56:                                               ; preds = %55, %40
  %57 = load i32, ptr %8, align 4
  %58 = and i32 %57, 32
  %59 = icmp ne i32 %58, 0
  br i1 %59, label %60, label %72

60:                                               ; preds = %56
  %61 = load ptr, ptr %7, align 8
  %62 = getelementptr inbounds nuw %"struct.(anonymous namespace)::fmstate", ptr %61, i32 0, i32 8
  %63 = load i8, ptr %62, align 1
  %64 = call noundef zeroext i1 @_ZL10isWordCharh(i8 noundef zeroext %63)
  br i1 %64, label %65, label %71

65:                                               ; preds = %60
  %66 = load ptr, ptr %7, align 8
  %67 = getelementptr inbounds nuw %"struct.(anonymous namespace)::fmstate", ptr %66, i32 0, i32 7
  %68 = load i8, ptr %67, align 8
  %69 = call noundef zeroext i1 @_ZL10isWordCharh(i8 noundef zeroext %68)
  br i1 %69, label %70, label %71

70:                                               ; preds = %65
  store i1 true, ptr %4, align 1
  store i32 1, ptr %10, align 4
  br label %89

71:                                               ; preds = %65, %60
  br label %72

72:                                               ; preds = %71, %56
  %73 = load i32, ptr %8, align 4
  %74 = and i32 %73, 64
  %75 = icmp ne i32 %74, 0
  br i1 %75, label %76, label %88

76:                                               ; preds = %72
  %77 = load ptr, ptr %7, align 8
  %78 = getelementptr inbounds nuw %"struct.(anonymous namespace)::fmstate", ptr %77, i32 0, i32 8
  %79 = load i8, ptr %78, align 1
  %80 = call noundef zeroext i1 @_ZL10isWordCharh(i8 noundef zeroext %79)
  br i1 %80, label %87, label %81

81:                                               ; preds = %76
  %82 = load ptr, ptr %7, align 8
  %83 = getelementptr inbounds nuw %"struct.(anonymous namespace)::fmstate", ptr %82, i32 0, i32 7
  %84 = load i8, ptr %83, align 8
  %85 = call noundef zeroext i1 @_ZL10isWordCharh(i8 noundef zeroext %84)
  br i1 %85, label %87, label %86

86:                                               ; preds = %81
  store i1 true, ptr %4, align 1
  store i32 1, ptr %10, align 4
  br label %89

87:                                               ; preds = %81, %76
  br label %88

88:                                               ; preds = %87, %72
  store i1 false, ptr %4, align 1
  store i32 1, ptr %10, align 4
  br label %89

89:                                               ; preds = %88, %86, %70, %54, %38, %23
  call void @llvm.lifetime.end.p0(i64 4, ptr %8) #21
  %90 = load i1, ptr %4, align 1
  ret i1 %90
}