; Function Attrs: mustprogress nofree norecurse nosync nounwind willreturn memory(none) uwtable
define internal fastcc noundef zeroext i1 @_ZL8canReachRKN3ue28NGHolderERKNS_12graph_detail15edge_descriptorINS_9ue2_graphIS0_NS_19NFAGraphVertexPropsENS_17NFAGraphEdgePropsEEEEERN12_GLOBAL__N_17fmstateE(i32 %.0.val.96.val, i8 %.312.val, i8 %.313.val) unnamed_addr #18 {
  %.not = icmp eq i32 %.0.val.96.val, 0
  br i1 %.not, label %58, label %1

1:                                                ; preds = %0
  %2 = and i32 %.0.val.96.val, 8
  %.not16 = icmp eq i32 %2, 0
  br i1 %.not16, label %15, label %3

3:                                                ; preds = %1
  %4 = and i8 %.313.val, -33
  %5 = add i8 %4, -65
  %6 = icmp ult i8 %5, 26
  %7 = add i8 %.313.val, -48
  %or.cond.i = icmp ult i8 %7, 10
  %or.cond6.i = or i1 %or.cond.i, %6
  %8 = icmp eq i8 %.313.val, 95
  %spec.select.i = or i1 %8, %or.cond6.i
  br i1 %spec.select.i, label %9, label %15

9:                                                ; preds = %3
  %10 = and i8 %.312.val, -33
  %11 = add i8 %10, -65
  %12 = icmp ult i8 %11, 26
  %13 = add i8 %.312.val, -48
  %or.cond.i20 = icmp ult i8 %13, 10
  %or.cond6.i21 = or i1 %or.cond.i20, %12
  %14 = icmp eq i8 %.312.val, 95
  %spec.select.i22 = or i1 %14, %or.cond6.i21
  br i1 %spec.select.i22, label %15, label %58

15:                                               ; preds = %3, %9, %1
  %16 = and i32 %.0.val.96.val, 16
  %.not17 = icmp eq i32 %16, 0
  br i1 %.not17, label %29, label %17

17:                                               ; preds = %15
  %18 = and i8 %.313.val, -33
  %19 = add i8 %18, -65
  %20 = icmp ult i8 %19, 26
  %21 = add i8 %.313.val, -48
  %or.cond.i23 = icmp ult i8 %21, 10
  %or.cond6.i24 = or i1 %or.cond.i23, %20
  %22 = icmp eq i8 %.313.val, 95
  %spec.select.i25 = or i1 %22, %or.cond6.i24
  br i1 %spec.select.i25, label %29, label %23

23:                                               ; preds = %17
  %24 = and i8 %.312.val, -33
  %25 = add i8 %24, -65
  %26 = icmp ult i8 %25, 26
  %27 = add i8 %.312.val, -48
  %or.cond.i26 = icmp ult i8 %27, 10
  %or.cond6.i27 = or i1 %or.cond.i26, %26
  %28 = icmp eq i8 %.312.val, 95
  %spec.select.i28 = or i1 %28, %or.cond6.i27
  br i1 %spec.select.i28, label %58, label %29

29:                                               ; preds = %17, %23, %15
  %30 = and i32 %.0.val.96.val, 32
  %.not18 = icmp eq i32 %30, 0
  br i1 %.not18, label %43, label %31

31:                                               ; preds = %29
  %32 = and i8 %.313.val, -33
  %33 = add i8 %32, -65
  %34 = icmp ult i8 %33, 26
  %35 = add i8 %.313.val, -48
  %or.cond.i29 = icmp ult i8 %35, 10
  %or.cond6.i30 = or i1 %or.cond.i29, %34
  %36 = icmp eq i8 %.313.val, 95
  %spec.select.i31 = or i1 %36, %or.cond6.i30
  br i1 %spec.select.i31, label %37, label %43

37:                                               ; preds = %31
  %38 = and i8 %.312.val, -33
  %39 = add i8 %38, -65
  %40 = icmp ult i8 %39, 26
  %41 = add i8 %.312.val, -48
  %or.cond.i32 = icmp ult i8 %41, 10
  %or.cond6.i33 = or i1 %or.cond.i32, %40
  %42 = icmp eq i8 %.312.val, 95
  %spec.select.i34 = or i1 %42, %or.cond6.i33
  br i1 %spec.select.i34, label %58, label %43

43:                                               ; preds = %31, %37, %29
  %44 = and i32 %.0.val.96.val, 64
  %.not19 = icmp eq i32 %44, 0
  br i1 %.not19, label %57, label %45

45:                                               ; preds = %43
  %46 = and i8 %.313.val, -33
  %47 = add i8 %46, -65
  %48 = icmp ult i8 %47, 26
  %49 = add i8 %.313.val, -48
  %or.cond.i35 = icmp ult i8 %49, 10
  %or.cond6.i36 = or i1 %or.cond.i35, %48
  %50 = icmp eq i8 %.313.val, 95
  %spec.select.i37 = or i1 %50, %or.cond6.i36
  br i1 %spec.select.i37, label %57, label %51

51:                                               ; preds = %45
  %52 = and i8 %.312.val, -33
  %53 = add i8 %52, -65
  %54 = icmp ult i8 %53, 26
  %55 = add i8 %.312.val, -48
  %or.cond.i38 = icmp ult i8 %55, 10
  %or.cond6.i39 = or i1 %or.cond.i38, %54
  %56 = icmp eq i8 %.312.val, 95
  %spec.select.i40 = or i1 %56, %or.cond6.i39
  br i1 %spec.select.i40, label %57, label %58

57:                                               ; preds = %45, %51, %43
  br label %58

58:                                               ; preds = %51, %37, %23, %9, %0, %57
  %.0 = phi i1 [ false, %57 ], [ true, %0 ], [ true, %9 ], [ true, %23 ], [ true, %37 ], [ true, %51 ]
  ret i1 %.0
}